target datalayout = "e-m:e-p270:32:32-p271:32:32-p272:64:64-i64:64-i128:128-f80:128-n8:16:32:64-S128"
target triple = "x86_64-pc-linux-gnu"

@.str.1 = private unnamed_addr constant [34 x i8] c"../openssl/crypto/x509/by_store.c\00", align 1

; Function Attrs: inlinehint nounwind uwtable
define internal ptr @ossl_check_OPENSSL_STRING_type(ptr noundef %0) #3 {
  %2 = alloca ptr, align 8
  store ptr %0, ptr %2, align 8, !tbaa !12
  %3 = load ptr, ptr %2, align 8, !tbaa !12
  ret ptr %3
}

; Function Attrs: inlinehint nounwind uwtable
define internal ptr @ossl_check_OPENSSL_STRING_sk_type(ptr noundef %0) #3 {
  %2 = alloca ptr, align 8
  store ptr %0, ptr %2, align 8, !tbaa !8
  %3 = load ptr, ptr %2, align 8, !tbaa !8
  ret ptr %3
}

; Function Attrs: nounwind uwtable
define internal i32 @by_store_ctrl_ex(ptr noundef %0, i32 noundef %1, ptr noundef %2, i64 noundef %3, ptr noundef %4, ptr noundef %5, ptr noundef %6) #0 {
  %8 = alloca i32, align 4
  %9 = alloca ptr, align 8
  %10 = alloca i32, align 4
  %11 = alloca ptr, align 8
  %12 = alloca i64, align 8
  %13 = alloca ptr, align 8
  %14 = alloca ptr, align 8
  %15 = alloca ptr, align 8
  %16 = alloca ptr, align 8
  %17 = alloca ptr, align 8
  %18 = alloca i32, align 4
  store ptr %0, ptr %9, align 8, !tbaa !3
  store i32 %1, ptr %10, align 4, !tbaa !10
  store ptr %2, ptr %11, align 8, !tbaa !12
  store i64 %3, ptr %12, align 8, !tbaa !14
  store ptr %4, ptr %13, align 8, !tbaa !16
  store ptr %5, ptr %14, align 8, !tbaa !22
  store ptr %6, ptr %15, align 8, !tbaa !12
  %19 = load i32, ptr %10, align 4, !tbaa !10
  switch i32 %19, label %57 [
    i32 3, label %20
    i32 4, label %51
  ]

20:                                               ; preds = %7
  %21 = load ptr, ptr %11, align 8, !tbaa !12
  %22 = icmp ne ptr %21, null
  br i1 %22, label %23, label %50

23:                                               ; preds = %20
  call void @llvm.lifetime.start.p0(i64 8, ptr %16) #4
  %24 = load ptr, ptr %9, align 8, !tbaa !3
  %25 = call ptr @X509_LOOKUP_get_method_data(ptr noundef %24)
  store ptr %25, ptr %16, align 8, !tbaa !8
  call void @llvm.lifetime.start.p0(i64 8, ptr %17) #4
  %26 = load ptr, ptr %11, align 8, !tbaa !12
  %27 = call noalias ptr @CRYPTO_strdup(ptr noundef %26, ptr noundef @.str.1, i32 noundef 116)
  store ptr %27, ptr %17, align 8, !tbaa !12
  %28 = load ptr, ptr %17, align 8, !tbaa !12
  %29 = icmp eq ptr %28, null
  br i1 %29, label %30, label %31

30:                                               ; preds = %23
  store i32 0, ptr %8, align 4
  store i32 1, ptr %18, align 4
  br label %49

31:                                               ; preds = %23
  %32 = load ptr, ptr %16, align 8, !tbaa !8
  %33 = icmp eq ptr %32, null
  br i1 %33, label %34, label %39

34:                                               ; preds = %31
  %35 = call ptr @OPENSSL_sk_new_null()
  store ptr %35, ptr %16, align 8, !tbaa !8
  %36 = load ptr, ptr %9, align 8, !tbaa !3
  %37 = load ptr, ptr %16, align 8, !tbaa !8
  %38 = call i32 @X509_LOOKUP_set_method_data(ptr noundef %36, ptr noundef %37)
  br label %39

39:                                               ; preds = %34, %31
  %40 = load ptr, ptr %16, align 8, !tbaa !8
  %41 = call ptr @ossl_check_OPENSSL_STRING_sk_type(ptr noundef %40)
  %42 = load ptr, ptr %17, align 8, !tbaa !12
  %43 = call ptr @ossl_check_OPENSSL_STRING_type(ptr noundef %42)
  %44 = call i32 @OPENSSL_sk_push(ptr noundef %41, ptr noundef %43)
  %45 = icmp sle i32 %44, 0
  br i1 %45, label %46, label %48

46:                                               ; preds = %39
  %47 = load ptr, ptr %17, align 8, !tbaa !12
  call void @CRYPTO_free(ptr noundef %47, ptr noundef @.str.1, i32 noundef 126)
  store i32 0, ptr %8, align 4
  store i32 1, ptr %18, align 4
  br label %49

48:                                               ; preds = %39
  store i32 1, ptr %8, align 4
  store i32 1, ptr %18, align 4
  br label %49

49:                                               ; preds = %48, %46, %30
  call void @llvm.lifetime.end.p0(i64 8, ptr %17) #4
  call void @llvm.lifetime.end.p0(i64 8, ptr %16) #4
  br label %58

50:                                               ; preds = %20
  store i32 1, ptr %8, align 4
  br label %58

51:                                               ; preds = %7
  %52 = load ptr, ptr %9, align 8, !tbaa !3
  %53 = load ptr, ptr %11, align 8, !tbaa !12
  %54 = load ptr, ptr %14, align 8, !tbaa !22
  %55 = load ptr, ptr %15, align 8, !tbaa !12
  %56 = call i32 @cache_objects(ptr noundef %52, ptr noundef %53, ptr noundef null, i32 noundef 0, ptr noundef %54, ptr noundef %55)
  store i32 %56, ptr %8, align 4
  br label %58

57:                                               ; preds = %7
  store i32 0, ptr %8, align 4
  br label %58

58:                                               ; preds = %57, %51, %50, %49
  %59 = load i32, ptr %8, align 4
  ret i32 %59
}