; Function Attrs: nounwind uwtable
define internal noundef i32 @by_store_ctrl_ex(ptr noundef %0, i32 noundef %1, ptr noundef %2, i64 %3, ptr readnone captures(none) %4, ptr noundef %5, ptr noundef %6) #1 {
  switch i32 %1, label %24 [
    i32 3, label %8
    i32 4, label %22
  ]

8:                                                ; preds = %7
  %.not = icmp eq ptr %2, null
  br i1 %.not, label %24, label %9

9:                                                ; preds = %8
  %10 = tail call ptr @X509_LOOKUP_get_method_data(ptr noundef %0) #3
  %11 = tail call noalias ptr @CRYPTO_strdup(ptr noundef nonnull %2, ptr noundef nonnull @.str.1, i32 noundef 116) #3
  %12 = icmp eq ptr %11, null
  br i1 %12, label %24, label %13

13:                                               ; preds = %9
  %14 = icmp eq ptr %10, null
  br i1 %14, label %15, label %18

15:                                               ; preds = %13
  %16 = tail call ptr @OPENSSL_sk_new_null() #3
  %17 = tail call i32 @X509_LOOKUP_set_method_data(ptr noundef %0, ptr noundef %16) #3
  br label %18

18:                                               ; preds = %15, %13
  %.015 = phi ptr [ %16, %15 ], [ %10, %13 ]
  %19 = tail call i32 @OPENSSL_sk_push(ptr noundef %.015, ptr noundef nonnull %11) #3
  %20 = icmp slt i32 %19, 1
  br i1 %20, label %21, label %24

21:                                               ; preds = %18
  tail call void @CRYPTO_free(ptr noundef nonnull %11, ptr noundef nonnull @.str.1, i32 noundef 126) #3
  br label %24

22:                                               ; preds = %7
  %23 = tail call fastcc i32 @cache_objects(ptr noundef %0, ptr noundef %2, ptr noundef null, i32 noundef 0, ptr noundef %5, ptr noundef %6)
  br label %24

24:                                               ; preds = %7, %8, %21, %9, %18, %22
  %.1 = phi i32 [ %23, %22 ], [ 0, %21 ], [ 0, %9 ], [ 1, %18 ], [ 1, %8 ], [ 0, %7 ]
  ret i32 %.1
}